target datalayout = "e-m:e-p270:32:32-p271:32:32-p272:64:64-i64:64-i128:128-f80:128-n8:16:32:64-S128"
target triple = "x86_64-pc-linux-gnu"

%struct._zval_struct = type { %union._zend_value, %union.anon.3, %union.anon.6 }
%union._zend_value = type { i64 }
%union.anon.3 = type { i32 }
%union.anon.6 = type { i32 }
%struct._zend_refcounted_h = type { i32, %union.anon }
%union.anon = type { i32 }
%struct._pcre_cache_entry = type { ptr, ptr, i32, i32, i32, i32, i32 }
%struct._zend_refcounted = type { %struct._zend_refcounted_h }
%struct.anon.4 = type { i8, i8, %union.anon.5 }
%union.anon.5 = type { i16 }

; Function Attrs: nounwind uwtable
define dso_local ptr @pcre_get_compiled_regex_cache(ptr noundef %0) #0 {
  %2 = alloca ptr, align 8
  store ptr %0, ptr %2, align 8, !tbaa !4
  %3 = load ptr, ptr %2, align 8, !tbaa !4
  %4 = call ptr @pcre_get_compiled_regex_cache_ex(ptr noundef %3, i1 noundef zeroext true)
  ret ptr %4
}

; Function Attrs: alwaysinline nounwind uwtable
define internal zeroext i1 @zend_parse_arg_str_ex(ptr noundef %0, ptr noundef %1, i1 noundef zeroext %2, i32 noundef %3, i1 noundef zeroext %4) #3 {
  %6 = alloca i1, align 1
  %7 = alloca ptr, align 8
  %8 = alloca ptr, align 8
  %9 = alloca i8, align 1
  %10 = alloca i32, align 4
  %11 = alloca i8, align 1
  store ptr %0, ptr %7, align 8, !tbaa !44
  store ptr %1, ptr %8, align 8, !tbaa !99
  %12 = zext i1 %2 to i8
  store i8 %12, ptr %9, align 1, !tbaa !9
  store i32 %3, ptr %10, align 4, !tbaa !13
  %13 = zext i1 %4 to i8
  store i8 %13, ptr %11, align 1, !tbaa !9
  %14 = load ptr, ptr %7, align 8, !tbaa !44
  %15 = call zeroext i8 @zval_get_type(ptr noundef %14)
  %16 = zext i8 %15 to i32
  %17 = icmp eq i32 %16, 6
  %18 = xor i1 %17, true
  %19 = xor i1 %18, true
  %20 = zext i1 %19 to i32
  %21 = sext i32 %20 to i64
  %22 = call i64 @llvm.expect.i64(i64 %21, i64 1)
  %23 = icmp ne i64 %22, 0
  br i1 %23, label %24, label %29

24:                                               ; preds = %5
  %25 = load ptr, ptr %7, align 8, !tbaa !44
  %26 = getelementptr inbounds nuw %struct._zval_struct, ptr %25, i32 0, i32 0
  %27 = load ptr, ptr %26, align 8, !tbaa !45
  %28 = load ptr, ptr %8, align 8, !tbaa !99
  store ptr %27, ptr %28, align 8, !tbaa !4
  br label %53

29:                                               ; preds = %5
  %30 = load i8, ptr %9, align 1, !tbaa !9, !range !17, !noundef !18
  %31 = trunc i8 %30 to i1
  br i1 %31, label %32, label %39

32:                                               ; preds = %29
  %33 = load ptr, ptr %7, align 8, !tbaa !44
  %34 = call zeroext i8 @zval_get_type(ptr noundef %33)
  %35 = zext i8 %34 to i32
  %36 = icmp eq i32 %35, 1
  br i1 %36, label %37, label %39

37:                                               ; preds = %32
  %38 = load ptr, ptr %8, align 8, !tbaa !99
  store ptr null, ptr %38, align 8, !tbaa !4
  br label %52

39:                                               ; preds = %32, %29
  %40 = load i8, ptr %11, align 1, !tbaa !9, !range !17, !noundef !18
  %41 = trunc i8 %40 to i1
  br i1 %41, label %42, label %47

42:                                               ; preds = %39
  %43 = load ptr, ptr %7, align 8, !tbaa !44
  %44 = load ptr, ptr %8, align 8, !tbaa !99
  %45 = load i32, ptr %10, align 4, !tbaa !13
  %46 = call zeroext i1 @zend_flf_parse_arg_str_slow(ptr noundef %43, ptr noundef %44, i32 noundef %45)
  store i1 %46, ptr %6, align 1
  br label %54

47:                                               ; preds = %39
  %48 = load ptr, ptr %7, align 8, !tbaa !44
  %49 = load ptr, ptr %8, align 8, !tbaa !99
  %50 = load i32, ptr %10, align 4, !tbaa !13
  %51 = call zeroext i1 @zend_parse_arg_str_slow(ptr noundef %48, ptr noundef %49, i32 noundef %50)
  store i1 %51, ptr %6, align 1
  br label %54

52:                                               ; preds = %37
  br label %53

53:                                               ; preds = %52, %24
  store i1 true, ptr %6, align 1
  br label %54

54:                                               ; preds = %53, %47, %42
  %55 = load i1, ptr %6, align 1
  ret i1 %55
}

; Function Attrs: alwaysinline nounwind uwtable
define internal i32 @zend_gc_addref(ptr noundef %0) #3 {
  %2 = alloca ptr, align 8
  store ptr %0, ptr %2, align 8, !tbaa !109
  br label %3

3:                                                ; preds = %1
  br label %4

4:                                                ; preds = %3
  %5 = load ptr, ptr %2, align 8, !tbaa !109
  %6 = getelementptr inbounds nuw %struct._zend_refcounted_h, ptr %5, i32 0, i32 0
  %7 = load i32, ptr %6, align 4, !tbaa !111
  %8 = add i32 %7, 1
  store i32 %8, ptr %6, align 4, !tbaa !111
  ret i32 %8
}

; Function Attrs: alwaysinline nounwind uwtable
define internal zeroext i8 @zval_get_type(ptr noundef %0) #3 {
  %2 = alloca ptr, align 8
  store ptr %0, ptr %2, align 8, !tbaa !44
  %3 = load ptr, ptr %2, align 8, !tbaa !44
  %4 = getelementptr inbounds nuw %struct._zval_struct, ptr %3, i32 0, i32 1
  %5 = getelementptr inbounds nuw %struct.anon.4, ptr %4, i32 0, i32 0
  %6 = load i8, ptr %5, align 8, !tbaa !45
  ret i8 %6
}

; Function Attrs: nounwind uwtable
define hidden void @zflf_preg_match_2(ptr noundef %0, ptr noundef %1, ptr noundef %2) #0 {
  %4 = alloca ptr, align 8
  %5 = alloca ptr, align 8
  %6 = alloca ptr, align 8
  %7 = alloca %struct._zval_struct, align 8
  %8 = alloca %struct._zval_struct, align 8
  %9 = alloca ptr, align 8
  %10 = alloca ptr, align 8
  %11 = alloca ptr, align 8
  %12 = alloca ptr, align 8
  %13 = alloca ptr, align 8
  %14 = alloca i32, align 4
  %15 = alloca ptr, align 8
  %16 = alloca ptr, align 8
  %17 = alloca ptr, align 8
  %18 = alloca i32, align 4
  %19 = alloca ptr, align 8
  %20 = alloca i32, align 4
  store ptr %0, ptr %4, align 8, !tbaa !44
  store ptr %1, ptr %5, align 8, !tbaa !44
  store ptr %2, ptr %6, align 8, !tbaa !44
  call void @llvm.lifetime.start.p0(i64 16, ptr %7) #17
  call void @llvm.lifetime.start.p0(i64 16, ptr %8) #17
  call void @llvm.lifetime.start.p0(i64 8, ptr %9) #17
  call void @llvm.lifetime.start.p0(i64 8, ptr %10) #17
  %21 = load ptr, ptr %5, align 8, !tbaa !44
  %22 = call zeroext i8 @zval_get_type(ptr noundef %21)
  %23 = zext i8 %22 to i32
  %24 = icmp eq i32 %23, 6
  br i1 %24, label %25, label %29

25:                                               ; preds = %3
  %26 = load ptr, ptr %5, align 8, !tbaa !44
  %27 = getelementptr inbounds nuw %struct._zval_struct, ptr %26, i32 0, i32 0
  %28 = load ptr, ptr %27, align 8, !tbaa !45
  store ptr %28, ptr %9, align 8, !tbaa !4
  br label %62

29:                                               ; preds = %3
  br label %30

30:                                               ; preds = %29
  call void @llvm.lifetime.start.p0(i64 8, ptr %11) #17
  store ptr %7, ptr %11, align 8, !tbaa !44
  call void @llvm.lifetime.start.p0(i64 8, ptr %12) #17
  %31 = load ptr, ptr %5, align 8, !tbaa !44
  store ptr %31, ptr %12, align 8, !tbaa !44
  call void @llvm.lifetime.start.p0(i64 8, ptr %13) #17
  %32 = load ptr, ptr %12, align 8, !tbaa !44
  %33 = getelementptr inbounds nuw %struct._zval_struct, ptr %32, i32 0, i32 0
  %34 = load ptr, ptr %33, align 8, !tbaa !45
  store ptr %34, ptr %13, align 8, !tbaa !107
  call void @llvm.lifetime.start.p0(i64 4, ptr %14) #17
  %35 = load ptr, ptr %12, align 8, !tbaa !44
  %36 = getelementptr inbounds nuw %struct._zval_struct, ptr %35, i32 0, i32 1
  %37 = load i32, ptr %36, align 8, !tbaa !45
  store i32 %37, ptr %14, align 4, !tbaa !13
  br label %38

38:                                               ; preds = %30
  %39 = load ptr, ptr %13, align 8, !tbaa !107
  %40 = load ptr, ptr %11, align 8, !tbaa !44
  %41 = getelementptr inbounds nuw %struct._zval_struct, ptr %40, i32 0, i32 0
  store ptr %39, ptr %41, align 8, !tbaa !45
  %42 = load i32, ptr %14, align 4, !tbaa !13
  %43 = load ptr, ptr %11, align 8, !tbaa !44
  %44 = getelementptr inbounds nuw %struct._zval_struct, ptr %43, i32 0, i32 1
  store i32 %42, ptr %44, align 8, !tbaa !45
  br label %45

45:                                               ; preds = %38
  br label %46

46:                                               ; preds = %45
  %47 = load i32, ptr %14, align 4, !tbaa !13
  %48 = and i32 %47, 65280
  %49 = icmp ne i32 %48, 0
  br i1 %49, label %50, label %54

50:                                               ; preds = %46
  %51 = load ptr, ptr %13, align 8, !tbaa !107
  %52 = getelementptr inbounds nuw %struct._zend_refcounted, ptr %51, i32 0, i32 0
  %53 = call i32 @zend_gc_addref(ptr noundef %52)
  br label %54

54:                                               ; preds = %50, %46
  call void @llvm.lifetime.end.p0(i64 4, ptr %14) #17
  call void @llvm.lifetime.end.p0(i64 8, ptr %13) #17
  call void @llvm.lifetime.end.p0(i64 8, ptr %12) #17
  call void @llvm.lifetime.end.p0(i64 8, ptr %11) #17
  br label %55

55:                                               ; preds = %54
  br label %56

56:                                               ; preds = %55
  store ptr %7, ptr %5, align 8, !tbaa !44
  %57 = load ptr, ptr %5, align 8, !tbaa !44
  %58 = call zeroext i1 @zend_parse_arg_str_ex(ptr noundef %57, ptr noundef %9, i1 noundef zeroext false, i32 noundef 1, i1 noundef zeroext true)
  br i1 %58, label %61, label %59

59:                                               ; preds = %56
  %60 = load ptr, ptr %5, align 8, !tbaa !44
  call void @zend_wrong_parameter_type_error(i32 noundef 1, i32 noundef 4, ptr noundef %60)
  br label %129

61:                                               ; preds = %56
  br label %62

62:                                               ; preds = %61, %25
  %63 = load ptr, ptr %6, align 8, !tbaa !44
  %64 = call zeroext i8 @zval_get_type(ptr noundef %63)
  %65 = zext i8 %64 to i32
  %66 = icmp eq i32 %65, 6
  br i1 %66, label %67, label %71

67:                                               ; preds = %62
  %68 = load ptr, ptr %6, align 8, !tbaa !44
  %69 = getelementptr inbounds nuw %struct._zval_struct, ptr %68, i32 0, i32 0
  %70 = load ptr, ptr %69, align 8, !tbaa !45
  store ptr %70, ptr %10, align 8, !tbaa !4
  br label %104

71:                                               ; preds = %62
  br label %72

72:                                               ; preds = %71
  call void @llvm.lifetime.start.p0(i64 8, ptr %15) #17
  store ptr %8, ptr %15, align 8, !tbaa !44
  call void @llvm.lifetime.start.p0(i64 8, ptr %16) #17
  %73 = load ptr, ptr %6, align 8, !tbaa !44
  store ptr %73, ptr %16, align 8, !tbaa !44
  call void @llvm.lifetime.start.p0(i64 8, ptr %17) #17
  %74 = load ptr, ptr %16, align 8, !tbaa !44
  %75 = getelementptr inbounds nuw %struct._zval_struct, ptr %74, i32 0, i32 0
  %76 = load ptr, ptr %75, align 8, !tbaa !45
  store ptr %76, ptr %17, align 8, !tbaa !107
  call void @llvm.lifetime.start.p0(i64 4, ptr %18) #17
  %77 = load ptr, ptr %16, align 8, !tbaa !44
  %78 = getelementptr inbounds nuw %struct._zval_struct, ptr %77, i32 0, i32 1
  %79 = load i32, ptr %78, align 8, !tbaa !45
  store i32 %79, ptr %18, align 4, !tbaa !13
  br label %80

80:                                               ; preds = %72
  %81 = load ptr, ptr %17, align 8, !tbaa !107
  %82 = load ptr, ptr %15, align 8, !tbaa !44
  %83 = getelementptr inbounds nuw %struct._zval_struct, ptr %82, i32 0, i32 0
  store ptr %81, ptr %83, align 8, !tbaa !45
  %84 = load i32, ptr %18, align 4, !tbaa !13
  %85 = load ptr, ptr %15, align 8, !tbaa !44
  %86 = getelementptr inbounds nuw %struct._zval_struct, ptr %85, i32 0, i32 1
  store i32 %84, ptr %86, align 8, !tbaa !45
  br label %87

87:                                               ; preds = %80
  br label %88

88:                                               ; preds = %87
  %89 = load i32, ptr %18, align 4, !tbaa !13
  %90 = and i32 %89, 65280
  %91 = icmp ne i32 %90, 0
  br i1 %91, label %92, label %96

92:                                               ; preds = %88
  %93 = load ptr, ptr %17, align 8, !tbaa !107
  %94 = getelementptr inbounds nuw %struct._zend_refcounted, ptr %93, i32 0, i32 0
  %95 = call i32 @zend_gc_addref(ptr noundef %94)
  br label %96

96:                                               ; preds = %92, %88
  call void @llvm.lifetime.end.p0(i64 4, ptr %18) #17
  call void @llvm.lifetime.end.p0(i64 8, ptr %17) #17
  call void @llvm.lifetime.end.p0(i64 8, ptr %16) #17
  call void @llvm.lifetime.end.p0(i64 8, ptr %15) #17
  br label %97

97:                                               ; preds = %96
  br label %98

98:                                               ; preds = %97
  store ptr %8, ptr %6, align 8, !tbaa !44
  %99 = load ptr, ptr %6, align 8, !tbaa !44
  %100 = call zeroext i1 @zend_parse_arg_str_ex(ptr noundef %99, ptr noundef %10, i1 noundef zeroext false, i32 noundef 2, i1 noundef zeroext true)
  br i1 %100, label %103, label %101

101:                                              ; preds = %98
  %102 = load ptr, ptr %6, align 8, !tbaa !44
  call void @zend_wrong_parameter_type_error(i32 noundef 2, i32 noundef 4, ptr noundef %102)
  br label %129

103:                                              ; preds = %98
  br label %104

104:                                              ; preds = %103, %67
  %105 = load ptr, ptr %9, align 8, !tbaa !4
  %106 = call ptr @pcre_get_compiled_regex_cache(ptr noundef %105)
  store ptr %106, ptr %19, align 8, !tbaa !64
  %107 = icmp eq ptr %106, null
  br i1 %107, label %108, label %117

108:                                              ; preds = %104
  br label %109

109:                                              ; preds = %108
  br label %110

110:                                              ; preds = %109
  %111 = load ptr, ptr %4, align 8, !tbaa !44
  %112 = getelementptr inbounds nuw %struct._zval_struct, ptr %111, i32 0, i32 1
  store i32 2, ptr %112, align 8, !tbaa !45
  br label %113

113:                                              ; preds = %110
  br label %114

114:                                              ; preds = %113
  store i32 1, ptr %20, align 4
  br label %152

115:                                              ; No predecessors!
  br label %116

116:                                              ; preds = %115
  br label %117

117:                                              ; preds = %116, %104
  %118 = load ptr, ptr %19, align 8, !tbaa !64
  %119 = getelementptr inbounds nuw %struct._pcre_cache_entry, ptr %118, i32 0, i32 6
  %120 = load i32, ptr %119, align 8, !tbaa !62
  %121 = add i32 %120, 1
  store i32 %121, ptr %119, align 8, !tbaa !62
  %122 = load ptr, ptr %19, align 8, !tbaa !64
  %123 = load ptr, ptr %10, align 8, !tbaa !4
  %124 = load ptr, ptr %4, align 8, !tbaa !44
  call void @php_pcre_match_impl(ptr noundef %122, ptr noundef %123, ptr noundef %124, ptr noundef null, i1 noundef zeroext false, i64 noundef 0, i64 noundef 0)
  %125 = load ptr, ptr %19, align 8, !tbaa !64
  %126 = getelementptr inbounds nuw %struct._pcre_cache_entry, ptr %125, i32 0, i32 6
  %127 = load i32, ptr %126, align 8, !tbaa !62
  %128 = add i32 %127, -1
  store i32 %128, ptr %126, align 8, !tbaa !62
  br label %129

129:                                              ; preds = %117, %101, %59
  %130 = load ptr, ptr %5, align 8, !tbaa !44
  %131 = icmp eq ptr %130, %7
  %132 = xor i1 %131, true
  %133 = xor i1 %132, true
  %134 = zext i1 %133 to i32
  %135 = sext i32 %134 to i64
  %136 = call i64 @llvm.expect.i64(i64 %135, i64 0)
  %137 = icmp ne i64 %136, 0
  br i1 %137, label %138, label %140

138:                                              ; preds = %129
  %139 = load ptr, ptr %5, align 8, !tbaa !44
  call void @zval_ptr_dtor(ptr noundef %139)
  br label %140

140:                                              ; preds = %138, %129
  %141 = load ptr, ptr %6, align 8, !tbaa !44
  %142 = icmp eq ptr %141, %8
  %143 = xor i1 %142, true
  %144 = xor i1 %143, true
  %145 = zext i1 %144 to i32
  %146 = sext i32 %145 to i64
  %147 = call i64 @llvm.expect.i64(i64 %146, i64 0)
  %148 = icmp ne i64 %147, 0
  br i1 %148, label %149, label %151

149:                                              ; preds = %140
  %150 = load ptr, ptr %6, align 8, !tbaa !44
  call void @zval_ptr_dtor(ptr noundef %150)
  br label %151

151:                                              ; preds = %149, %140
  store i32 0, ptr %20, align 4
  br label %152

152:                                              ; preds = %151, %114
  call void @llvm.lifetime.end.p0(i64 8, ptr %10) #17
  call void @llvm.lifetime.end.p0(i64 8, ptr %9) #17
  call void @llvm.lifetime.end.p0(i64 16, ptr %8) #17
  call void @llvm.lifetime.end.p0(i64 16, ptr %7) #17
  %153 = load i32, ptr %20, align 4
  switch i32 %153, label %155 [
    i32 0, label %154
    i32 1, label %154
  ]

154:                                              ; preds = %152, %152
  ret void

155:                                              ; preds = %152
  unreachable
}