; Function Attrs: nounwind uwtable
define hidden void @zflf_preg_match_2(ptr noundef writeonly captures(none) %0, ptr noundef %1, ptr noundef %2) #0 {
  %4 = alloca %struct._zval_struct, align 8
  %5 = alloca %struct._zval_struct, align 8
  %6 = alloca ptr, align 8
  %7 = alloca ptr, align 8
  call void @llvm.lifetime.start.p0(i64 16, ptr nonnull %4) #24
  call void @llvm.lifetime.start.p0(i64 16, ptr nonnull %5) #24
  call void @llvm.lifetime.start.p0(i64 8, ptr nonnull %6) #24
  call void @llvm.lifetime.start.p0(i64 8, ptr nonnull %7) #24
  %8 = getelementptr inbounds nuw i8, ptr %1, i64 8
  %9 = load i8, ptr %8, align 8, !tbaa !11
  %10 = icmp eq i8 %9, 6
  %11 = load ptr, ptr %1, align 8, !tbaa !11
  br i1 %10, label %.sink.split, label %12

12:                                               ; preds = %3
  %13 = load i32, ptr %8, align 8, !tbaa !11
  store ptr %11, ptr %4, align 8, !tbaa !11
  %14 = getelementptr inbounds nuw i8, ptr %4, i64 8
  store i32 %13, ptr %14, align 8, !tbaa !11
  %15 = and i32 %13, 65280
  %.not = icmp eq i32 %15, 0
  %16 = trunc i32 %13 to i8
  br i1 %.not, label %20, label %17

17:                                               ; preds = %12
  %18 = load i32, ptr %11, align 4, !tbaa !12
  %19 = add i32 %18, 1
  store i32 %19, ptr %11, align 4, !tbaa !12
  %.pre = load i8, ptr %14, align 8, !tbaa !11
  br label %20

20:                                               ; preds = %17, %12
  %21 = phi i8 [ %.pre, %17 ], [ %16, %12 ]
  %22 = icmp eq i8 %21, 6
  br i1 %22, label %zend_parse_arg_str_ex.exit.thread, label %zend_parse_arg_str_ex.exit, !prof !55

zend_parse_arg_str_ex.exit.thread:                ; preds = %20
  %23 = load ptr, ptr %4, align 8, !tbaa !11
  br label %.sink.split

zend_parse_arg_str_ex.exit:                       ; preds = %20
  %24 = call zeroext i1 @zend_flf_parse_arg_str_slow(ptr noundef nonnull %4, ptr noundef nonnull %6, i32 noundef 1) #24
  br i1 %24, label %25, label %.thread

.thread:                                          ; preds = %zend_parse_arg_str_ex.exit
  call void @zend_wrong_parameter_type_error(i32 noundef 1, i32 noundef 4, ptr noundef nonnull %4) #24
  br label %59

.sink.split:                                      ; preds = %3, %zend_parse_arg_str_ex.exit.thread
  %.sink = phi ptr [ %23, %zend_parse_arg_str_ex.exit.thread ], [ %11, %3 ]
  %.0.ph = phi ptr [ %4, %zend_parse_arg_str_ex.exit.thread ], [ %1, %3 ]
  store ptr %.sink, ptr %6, align 8, !tbaa !96
  br label %25

25:                                               ; preds = %.sink.split, %zend_parse_arg_str_ex.exit
  %.0 = phi ptr [ %4, %zend_parse_arg_str_ex.exit ], [ %.0.ph, %.sink.split ]
  %26 = getelementptr inbounds nuw i8, ptr %2, i64 8
  %27 = load i8, ptr %26, align 8, !tbaa !11
  %28 = icmp eq i8 %27, 6
  br i1 %28, label %.sink.split48, label %29

29:                                               ; preds = %25
  %30 = load ptr, ptr %2, align 8, !tbaa !11
  %31 = load i32, ptr %26, align 8, !tbaa !11
  store ptr %30, ptr %5, align 8, !tbaa !11
  %32 = getelementptr inbounds nuw i8, ptr %5, i64 8
  store i32 %31, ptr %32, align 8, !tbaa !11
  %33 = and i32 %31, 65280
  %.not37 = icmp eq i32 %33, 0
  %34 = trunc i32 %31 to i8
  br i1 %.not37, label %38, label %35

35:                                               ; preds = %29
  %36 = load i32, ptr %30, align 4, !tbaa !12
  %37 = add i32 %36, 1
  store i32 %37, ptr %30, align 4, !tbaa !12
  %.pre47 = load i8, ptr %32, align 8, !tbaa !11
  br label %38

38:                                               ; preds = %35, %29
  %39 = phi i8 [ %.pre47, %35 ], [ %34, %29 ]
  %40 = icmp eq i8 %39, 6
  br i1 %40, label %.sink.split48, label %zend_parse_arg_str_ex.exit39, !prof !55

zend_parse_arg_str_ex.exit39:                     ; preds = %38
  %41 = call zeroext i1 @zend_flf_parse_arg_str_slow(ptr noundef nonnull %5, ptr noundef nonnull %7, i32 noundef 2) #24
  br i1 %41, label %44, label %42

42:                                               ; preds = %zend_parse_arg_str_ex.exit39
  call void @zend_wrong_parameter_type_error(i32 noundef 2, i32 noundef 4, ptr noundef nonnull %5) #24
  br label %57

.sink.split48:                                    ; preds = %38, %25
  %.sink50 = phi ptr [ %2, %25 ], [ %5, %38 ]
  %43 = load ptr, ptr %.sink50, align 8, !tbaa !11
  store ptr %43, ptr %7, align 8, !tbaa !96
  br label %44

44:                                               ; preds = %.sink.split48, %zend_parse_arg_str_ex.exit39
  %.135 = phi ptr [ %5, %zend_parse_arg_str_ex.exit39 ], [ %.sink50, %.sink.split48 ]
  %45 = load ptr, ptr %6, align 8, !tbaa !96
  %46 = call ptr @pcre_get_compiled_regex_cache_ex(ptr noundef %45, i1 noundef zeroext true)
  %47 = icmp eq ptr %46, null
  br i1 %47, label %48, label %50

48:                                               ; preds = %44
  %49 = getelementptr inbounds nuw i8, ptr %0, i64 8
  store i32 2, ptr %49, align 8, !tbaa !11
  br label %63

50:                                               ; preds = %44
  %51 = getelementptr inbounds nuw i8, ptr %46, i64 32
  %52 = load i32, ptr %51, align 8, !tbaa !63
  %53 = add i32 %52, 1
  store i32 %53, ptr %51, align 8, !tbaa !63
  %54 = load ptr, ptr %7, align 8, !tbaa !96
  call void @php_pcre_match_impl(ptr noundef nonnull %46, ptr noundef %54, ptr noundef %0, ptr noundef null, i1 noundef zeroext false, i64 noundef 0, i64 noundef 0)
  %55 = load i32, ptr %51, align 8, !tbaa !63
  %56 = add i32 %55, -1
  store i32 %56, ptr %51, align 8, !tbaa !63
  br label %57

57:                                               ; preds = %50, %42
  %.034 = phi ptr [ %.135, %50 ], [ %5, %42 ]
  %58 = icmp eq ptr %.0, %4
  br i1 %58, label %59, label %60, !prof !102

59:                                               ; preds = %.thread, %57
  %.146 = phi ptr [ %4, %.thread ], [ %.0, %57 ]
  %.03445 = phi ptr [ %2, %.thread ], [ %.034, %57 ]
  call void @zval_ptr_dtor(ptr noundef nonnull %.146) #24
  br label %60

60:                                               ; preds = %59, %57
  %.03444 = phi ptr [ %.03445, %59 ], [ %.034, %57 ]
  %61 = icmp eq ptr %.03444, %5
  br i1 %61, label %62, label %63, !prof !47

62:                                               ; preds = %60
  call void @zval_ptr_dtor(ptr noundef %.03444) #24
  br label %63

63:                                               ; preds = %60, %62, %48
  call void @llvm.lifetime.end.p0(i64 8, ptr nonnull %7) #24
  call void @llvm.lifetime.end.p0(i64 8, ptr nonnull %6) #24
  call void @llvm.lifetime.end.p0(i64 16, ptr nonnull %5) #24
  call void @llvm.lifetime.end.p0(i64 16, ptr nonnull %4) #24
  ret void
}